target datalayout = "e-m:e-p270:32:32-p271:32:32-p272:64:64-i64:64-i128:128-f80:128-n8:16:32:64-S128"
target triple = "x86_64-pc-linux-gnu"

%"struct.duckdb_brotli::SharedEncoderDictionary" = type { i32, %"struct.duckdb_brotli::CompoundDictionary", %"struct.duckdb_brotli::ContextualEncoderDictionary", i32 }
%"struct.duckdb_brotli::CompoundDictionary" = type { i64, i64, [16 x ptr], [16 x ptr], [16 x i64], i64, [16 x ptr] }
%"struct.duckdb_brotli::ContextualEncoderDictionary" = type { i32, i8, [64 x i8], [64 x ptr], i64, %"struct.duckdb_brotli::BrotliEncoderDictionary", ptr }
%"struct.duckdb_brotli::BrotliEncoderDictionary" = type { ptr, i32, i32, i64, ptr, ptr, ptr, ptr, %"struct.duckdb_brotli::BrotliTrie", i32, ptr, ptr, ptr, i64, ptr, i64, ptr, ptr }
%"struct.duckdb_brotli::BrotliTrie" = type { ptr, i64, i64, %"struct.duckdb_brotli::BrotliTrieNode" }
%"struct.duckdb_brotli::BrotliTrieNode" = type { i8, i8, i8, i32, i32 }
%"struct.duckdb_brotli::BrotliTransforms" = type { i16, ptr, ptr, i32, ptr, ptr, [10 x i16] }

@_ZN13duckdb_brotli26kStaticDictionaryHashWordsE = external constant [32768 x i16], align 16
@_ZN13duckdb_brotli28kStaticDictionaryHashLengthsE = external constant [32768 x i8], align 16

; Function Attrs: mustprogress nounwind uwtable
define internal void @_ZL14BrotliTrieInitPN13duckdb_brotli10BrotliTrieE(ptr noundef %0) #3 {
  %2 = alloca ptr, align 8
  store ptr %0, ptr %2, align 8, !tbaa !70
  %3 = load ptr, ptr %2, align 8, !tbaa !70
  %4 = getelementptr inbounds nuw %"struct.duckdb_brotli::BrotliTrie", ptr %3, i32 0, i32 1
  store i64 0, ptr %4, align 8, !tbaa !72
  %5 = load ptr, ptr %2, align 8, !tbaa !70
  %6 = getelementptr inbounds nuw %"struct.duckdb_brotli::BrotliTrie", ptr %5, i32 0, i32 2
  store i64 0, ptr %6, align 8, !tbaa !73
  %7 = load ptr, ptr %2, align 8, !tbaa !70
  %8 = getelementptr inbounds nuw %"struct.duckdb_brotli::BrotliTrie", ptr %7, i32 0, i32 0
  store ptr null, ptr %8, align 8, !tbaa !74
  %9 = load ptr, ptr %2, align 8, !tbaa !70
  %10 = getelementptr inbounds nuw %"struct.duckdb_brotli::BrotliTrie", ptr %9, i32 0, i32 3
  %11 = getelementptr inbounds nuw %"struct.duckdb_brotli::BrotliTrieNode", ptr %10, i32 0, i32 0
  store i8 0, ptr %11, align 8, !tbaa !75
  %12 = load ptr, ptr %2, align 8, !tbaa !70
  %13 = getelementptr inbounds nuw %"struct.duckdb_brotli::BrotliTrie", ptr %12, i32 0, i32 3
  %14 = getelementptr inbounds nuw %"struct.duckdb_brotli::BrotliTrieNode", ptr %13, i32 0, i32 2
  store i8 0, ptr %14, align 2, !tbaa !76
  %15 = load ptr, ptr %2, align 8, !tbaa !70
  %16 = getelementptr inbounds nuw %"struct.duckdb_brotli::BrotliTrie", ptr %15, i32 0, i32 3
  %17 = getelementptr inbounds nuw %"struct.duckdb_brotli::BrotliTrieNode", ptr %16, i32 0, i32 3
  store i32 0, ptr %17, align 4, !tbaa !77
  %18 = load ptr, ptr %2, align 8, !tbaa !70
  %19 = getelementptr inbounds nuw %"struct.duckdb_brotli::BrotliTrie", ptr %18, i32 0, i32 3
  %20 = getelementptr inbounds nuw %"struct.duckdb_brotli::BrotliTrieNode", ptr %19, i32 0, i32 4
  store i32 0, ptr %20, align 8, !tbaa !78
  ret void
}

; Function Attrs: mustprogress uwtable
define internal void @_ZL21InitEncoderDictionaryPN13duckdb_brotli23BrotliEncoderDictionaryE(ptr noundef %0) #0 {
  %2 = alloca ptr, align 8
  store ptr %0, ptr %2, align 8, !tbaa !32
  %3 = call noundef ptr @_ZN13duckdb_brotli19BrotliGetDictionaryEv()
  %4 = load ptr, ptr %2, align 8, !tbaa !32
  %5 = getelementptr inbounds nuw %"struct.duckdb_brotli::BrotliEncoderDictionary", ptr %4, i32 0, i32 0
  store ptr %3, ptr %5, align 8, !tbaa !35
  %6 = call noundef ptr @_ZN13duckdb_brotli19BrotliGetTransformsEv()
  %7 = getelementptr inbounds nuw %"struct.duckdb_brotli::BrotliTransforms", ptr %6, i32 0, i32 3
  %8 = load i32, ptr %7, align 8, !tbaa !36
  %9 = load ptr, ptr %2, align 8, !tbaa !32
  %10 = getelementptr inbounds nuw %"struct.duckdb_brotli::BrotliEncoderDictionary", ptr %9, i32 0, i32 1
  store i32 %8, ptr %10, align 8, !tbaa !39
  %11 = load ptr, ptr %2, align 8, !tbaa !32
  %12 = getelementptr inbounds nuw %"struct.duckdb_brotli::BrotliEncoderDictionary", ptr %11, i32 0, i32 4
  store ptr @_ZN13duckdb_brotli26kStaticDictionaryHashWordsE, ptr %12, align 8, !tbaa !40
  %13 = load ptr, ptr %2, align 8, !tbaa !32
  %14 = getelementptr inbounds nuw %"struct.duckdb_brotli::BrotliEncoderDictionary", ptr %13, i32 0, i32 5
  store ptr @_ZN13duckdb_brotli28kStaticDictionaryHashLengthsE, ptr %14, align 8, !tbaa !41
  %15 = load ptr, ptr %2, align 8, !tbaa !32
  %16 = getelementptr inbounds nuw %"struct.duckdb_brotli::BrotliEncoderDictionary", ptr %15, i32 0, i32 6
  store ptr @_ZN13duckdb_brotliL24kStaticDictionaryBucketsE, ptr %16, align 8, !tbaa !42
  %17 = load ptr, ptr %2, align 8, !tbaa !32
  %18 = getelementptr inbounds nuw %"struct.duckdb_brotli::BrotliEncoderDictionary", ptr %17, i32 0, i32 7
  store ptr @_ZN13duckdb_brotliL22kStaticDictionaryWordsE, ptr %18, align 8, !tbaa !43
  %19 = load ptr, ptr %2, align 8, !tbaa !32
  %20 = getelementptr inbounds nuw %"struct.duckdb_brotli::BrotliEncoderDictionary", ptr %19, i32 0, i32 2
  store i32 10, ptr %20, align 4, !tbaa !44
  %21 = load ptr, ptr %2, align 8, !tbaa !32
  %22 = getelementptr inbounds nuw %"struct.duckdb_brotli::BrotliEncoderDictionary", ptr %21, i32 0, i32 3
  store i64 512093189200228864, ptr %22, align 8, !tbaa !45
  %23 = load ptr, ptr %2, align 8, !tbaa !32
  %24 = getelementptr inbounds nuw %"struct.duckdb_brotli::BrotliEncoderDictionary", ptr %23, i32 0, i32 10
  store ptr null, ptr %24, align 8, !tbaa !46
  %25 = load ptr, ptr %2, align 8, !tbaa !32
  %26 = getelementptr inbounds nuw %"struct.duckdb_brotli::BrotliEncoderDictionary", ptr %25, i32 0, i32 11
  store ptr null, ptr %26, align 8, !tbaa !47
  %27 = load ptr, ptr %2, align 8, !tbaa !32
  %28 = getelementptr inbounds nuw %"struct.duckdb_brotli::BrotliEncoderDictionary", ptr %27, i32 0, i32 12
  store ptr null, ptr %28, align 8, !tbaa !48
  %29 = load ptr, ptr %2, align 8, !tbaa !32
  %30 = getelementptr inbounds nuw %"struct.duckdb_brotli::BrotliEncoderDictionary", ptr %29, i32 0, i32 13
  store i64 0, ptr %30, align 8, !tbaa !49
  %31 = load ptr, ptr %2, align 8, !tbaa !32
  %32 = getelementptr inbounds nuw %"struct.duckdb_brotli::BrotliEncoderDictionary", ptr %31, i32 0, i32 14
  store ptr null, ptr %32, align 8, !tbaa !50
  %33 = load ptr, ptr %2, align 8, !tbaa !32
  %34 = getelementptr inbounds nuw %"struct.duckdb_brotli::BrotliEncoderDictionary", ptr %33, i32 0, i32 15
  store i64 0, ptr %34, align 8, !tbaa !51
  %35 = load ptr, ptr %2, align 8, !tbaa !32
  %36 = getelementptr inbounds nuw %"struct.duckdb_brotli::BrotliEncoderDictionary", ptr %35, i32 0, i32 16
  store ptr null, ptr %36, align 8, !tbaa !52
  %37 = load ptr, ptr %2, align 8, !tbaa !32
  %38 = getelementptr inbounds nuw %"struct.duckdb_brotli::BrotliEncoderDictionary", ptr %37, i32 0, i32 17
  store ptr null, ptr %38, align 8, !tbaa !53
  %39 = load ptr, ptr %2, align 8, !tbaa !32
  %40 = getelementptr inbounds nuw %"struct.duckdb_brotli::BrotliEncoderDictionary", ptr %39, i32 0, i32 9
  store i32 0, ptr %40, align 8, !tbaa !54
  %41 = load ptr, ptr %2, align 8, !tbaa !32
  %42 = getelementptr inbounds nuw %"struct.duckdb_brotli::BrotliEncoderDictionary", ptr %41, i32 0, i32 8
  call void @_ZL14BrotliTrieInitPN13duckdb_brotli10BrotliTrieE(ptr noundef %42)
  ret void
}

; Function Attrs: mustprogress uwtable
define void @_ZN13duckdb_brotli33BrotliInitSharedEncoderDictionaryEPNS_23SharedEncoderDictionaryE(ptr noundef %0) #0 {
  %2 = alloca ptr, align 8
  store ptr %0, ptr %2, align 8, !tbaa !3
  %3 = load ptr, ptr %2, align 8, !tbaa !3
  %4 = getelementptr inbounds nuw %"struct.duckdb_brotli::SharedEncoderDictionary", ptr %3, i32 0, i32 0
  store i32 -558043679, ptr %4, align 8, !tbaa !8
  %5 = load ptr, ptr %2, align 8, !tbaa !3
  %6 = getelementptr inbounds nuw %"struct.duckdb_brotli::SharedEncoderDictionary", ptr %5, i32 0, i32 1
  %7 = getelementptr inbounds nuw %"struct.duckdb_brotli::CompoundDictionary", ptr %6, i32 0, i32 0
  store i64 0, ptr %7, align 8, !tbaa !24
  %8 = load ptr, ptr %2, align 8, !tbaa !3
  %9 = getelementptr inbounds nuw %"struct.duckdb_brotli::SharedEncoderDictionary", ptr %8, i32 0, i32 1
  %10 = getelementptr inbounds nuw %"struct.duckdb_brotli::CompoundDictionary", ptr %9, i32 0, i32 1
  store i64 0, ptr %10, align 8, !tbaa !25
  %11 = load ptr, ptr %2, align 8, !tbaa !3
  %12 = getelementptr inbounds nuw %"struct.duckdb_brotli::SharedEncoderDictionary", ptr %11, i32 0, i32 1
  %13 = getelementptr inbounds nuw %"struct.duckdb_brotli::CompoundDictionary", ptr %12, i32 0, i32 4
  %14 = getelementptr inbounds [16 x i64], ptr %13, i64 0, i64 0
  store i64 0, ptr %14, align 8, !tbaa !26
  %15 = load ptr, ptr %2, align 8, !tbaa !3
  %16 = getelementptr inbounds nuw %"struct.duckdb_brotli::SharedEncoderDictionary", ptr %15, i32 0, i32 1
  %17 = getelementptr inbounds nuw %"struct.duckdb_brotli::CompoundDictionary", ptr %16, i32 0, i32 5
  store i64 0, ptr %17, align 8, !tbaa !27
  %18 = load ptr, ptr %2, align 8, !tbaa !3
  %19 = getelementptr inbounds nuw %"struct.duckdb_brotli::SharedEncoderDictionary", ptr %18, i32 0, i32 2
  %20 = getelementptr inbounds nuw %"struct.duckdb_brotli::ContextualEncoderDictionary", ptr %19, i32 0, i32 0
  store i32 0, ptr %20, align 8, !tbaa !28
  %21 = load ptr, ptr %2, align 8, !tbaa !3
  %22 = getelementptr inbounds nuw %"struct.duckdb_brotli::SharedEncoderDictionary", ptr %21, i32 0, i32 2
  %23 = getelementptr inbounds nuw %"struct.duckdb_brotli::ContextualEncoderDictionary", ptr %22, i32 0, i32 1
  store i8 1, ptr %23, align 4, !tbaa !29
  %24 = load ptr, ptr %2, align 8, !tbaa !3
  %25 = getelementptr inbounds nuw %"struct.duckdb_brotli::SharedEncoderDictionary", ptr %24, i32 0, i32 2
  %26 = getelementptr inbounds nuw %"struct.duckdb_brotli::ContextualEncoderDictionary", ptr %25, i32 0, i32 6
  store ptr null, ptr %26, align 8, !tbaa !30
  %27 = load ptr, ptr %2, align 8, !tbaa !3
  %28 = getelementptr inbounds nuw %"struct.duckdb_brotli::SharedEncoderDictionary", ptr %27, i32 0, i32 2
  %29 = getelementptr inbounds nuw %"struct.duckdb_brotli::ContextualEncoderDictionary", ptr %28, i32 0, i32 4
  store i64 1, ptr %29, align 8, !tbaa !31
  %30 = load ptr, ptr %2, align 8, !tbaa !3
  %31 = getelementptr inbounds nuw %"struct.duckdb_brotli::SharedEncoderDictionary", ptr %30, i32 0, i32 2
  %32 = getelementptr inbounds nuw %"struct.duckdb_brotli::ContextualEncoderDictionary", ptr %31, i32 0, i32 5
  %33 = load ptr, ptr %2, align 8, !tbaa !3
  %34 = getelementptr inbounds nuw %"struct.duckdb_brotli::SharedEncoderDictionary", ptr %33, i32 0, i32 2
  %35 = getelementptr inbounds nuw %"struct.duckdb_brotli::ContextualEncoderDictionary", ptr %34, i32 0, i32 3
  %36 = getelementptr inbounds [64 x ptr], ptr %35, i64 0, i64 0
  store ptr %32, ptr %36, align 8, !tbaa !32
  %37 = load ptr, ptr %2, align 8, !tbaa !3
  %38 = getelementptr inbounds nuw %"struct.duckdb_brotli::SharedEncoderDictionary", ptr %37, i32 0, i32 2
  %39 = getelementptr inbounds nuw %"struct.duckdb_brotli::ContextualEncoderDictionary", ptr %38, i32 0, i32 5
  call void @_ZL21InitEncoderDictionaryPN13duckdb_brotli23BrotliEncoderDictionaryE(ptr noundef %39)
  %40 = load ptr, ptr %2, align 8, !tbaa !3
  %41 = getelementptr inbounds nuw %"struct.duckdb_brotli::SharedEncoderDictionary", ptr %40, i32 0, i32 2
  %42 = load ptr, ptr %2, align 8, !tbaa !3
  %43 = getelementptr inbounds nuw %"struct.duckdb_brotli::SharedEncoderDictionary", ptr %42, i32 0, i32 2
  %44 = getelementptr inbounds nuw %"struct.duckdb_brotli::ContextualEncoderDictionary", ptr %43, i32 0, i32 5
  %45 = getelementptr inbounds nuw %"struct.duckdb_brotli::BrotliEncoderDictionary", ptr %44, i32 0, i32 10
  store ptr %41, ptr %45, align 8, !tbaa !33
  %46 = load ptr, ptr %2, align 8, !tbaa !3
  %47 = getelementptr inbounds nuw %"struct.duckdb_brotli::SharedEncoderDictionary", ptr %46, i32 0, i32 3
  store i32 11, ptr %47, align 8, !tbaa !34
  ret void
}