; Function Attrs: mustprogress uwtable
define void @_ZN13duckdb_brotli33BrotliInitSharedEncoderDictionaryEPNS_23SharedEncoderDictionaryE(ptr noundef initializes((0, 4), (8, 24), (280, 288), (408, 416), (544, 549), (1128, 1136), (1304, 1312)) %0) local_unnamed_addr #0 {
  store i32 -558043679, ptr %0, align 8, !tbaa !3
  %2 = getelementptr inbounds nuw i8, ptr %0, i64 8
  %3 = getelementptr inbounds nuw i8, ptr %0, i64 280
  store i64 0, ptr %3, align 8, !tbaa !22
  %4 = getelementptr inbounds nuw i8, ptr %0, i64 408
  store i64 0, ptr %4, align 8, !tbaa !23
  %5 = getelementptr inbounds nuw i8, ptr %0, i64 544
  store i32 0, ptr %5, align 8, !tbaa !24
  %6 = getelementptr inbounds nuw i8, ptr %0, i64 548
  tail call void @llvm.memset.p0.i64(ptr noundef nonnull align 8 dereferenceable(16) %2, i8 0, i64 16, i1 false)
  store i8 1, ptr %6, align 4, !tbaa !25
  %7 = getelementptr inbounds nuw i8, ptr %0, i64 1304
  store ptr null, ptr %7, align 8, !tbaa !26
  %8 = getelementptr inbounds nuw i8, ptr %0, i64 1128
  store i64 1, ptr %8, align 8, !tbaa !27
  %9 = getelementptr inbounds nuw i8, ptr %0, i64 1136
  %10 = getelementptr inbounds nuw i8, ptr %0, i64 616
  store ptr %9, ptr %10, align 8, !tbaa !28
  %11 = tail call noundef ptr @_ZN13duckdb_brotli19BrotliGetDictionaryEv()
  store ptr %11, ptr %9, align 8, !tbaa !29
  %12 = tail call noundef ptr @_ZN13duckdb_brotli19BrotliGetTransformsEv()
  %13 = getelementptr inbounds nuw i8, ptr %12, i64 24
  %14 = load i32, ptr %13, align 8, !tbaa !30
  %15 = getelementptr inbounds nuw i8, ptr %0, i64 1144
  store i32 %14, ptr %15, align 8, !tbaa !33
  %16 = getelementptr inbounds nuw i8, ptr %0, i64 1160
  store ptr @_ZN13duckdb_brotli26kStaticDictionaryHashWordsE, ptr %16, align 8, !tbaa !34
  %17 = getelementptr inbounds nuw i8, ptr %0, i64 1168
  store ptr @_ZN13duckdb_brotli28kStaticDictionaryHashLengthsE, ptr %17, align 8, !tbaa !35
  %18 = getelementptr inbounds nuw i8, ptr %0, i64 1176
  store ptr @_ZN13duckdb_brotliL24kStaticDictionaryBucketsE, ptr %18, align 8, !tbaa !36
  %19 = getelementptr inbounds nuw i8, ptr %0, i64 1184
  store ptr @_ZN13duckdb_brotliL22kStaticDictionaryWordsE, ptr %19, align 8, !tbaa !37
  %20 = getelementptr inbounds nuw i8, ptr %0, i64 1148
  store i32 10, ptr %20, align 4, !tbaa !38
  %21 = getelementptr inbounds nuw i8, ptr %0, i64 1152
  store i64 512093189200228864, ptr %21, align 8, !tbaa !39
  %22 = getelementptr inbounds nuw i8, ptr %0, i64 1240
  %23 = getelementptr inbounds nuw i8, ptr %0, i64 1232
  store i32 0, ptr %23, align 8, !tbaa !40
  %24 = getelementptr inbounds nuw i8, ptr %0, i64 1192
  %25 = getelementptr inbounds nuw i8, ptr %0, i64 1218
  store i8 0, ptr %25, align 2, !tbaa !41
  %26 = getelementptr inbounds nuw i8, ptr %0, i64 1220
  store i32 0, ptr %26, align 4, !tbaa !42
  %27 = getelementptr inbounds nuw i8, ptr %0, i64 1224
  store i32 0, ptr %27, align 8, !tbaa !43
  tail call void @llvm.memset.p0.i64(ptr noundef nonnull align 8 dereferenceable(25) %24, i8 0, i64 25, i1 false)
  %28 = getelementptr inbounds nuw i8, ptr %0, i64 1248
  tail call void @llvm.memset.p0.i64(ptr noundef nonnull align 8 dereferenceable(64) %28, i8 0, i64 56, i1 false)
  store ptr %5, ptr %22, align 8, !tbaa !44
  %29 = getelementptr inbounds nuw i8, ptr %0, i64 1312
  store i32 11, ptr %29, align 8, !tbaa !45
  ret void
}